target datalayout = "e-m:e-p270:32:32-p271:32:32-p272:64:64-i64:64-i128:128-f80:128-n8:16:32:64-S128"
target triple = "x86_64-pc-linux-gnu"

%union.pthread_mutex_t = type { %struct.__pthread_mutex_s }
%struct.__pthread_mutex_s = type { i32, i32, i32, i32, i32, i16, i16, %struct.__pthread_internal_list }
%struct.__pthread_internal_list = type { ptr, ptr }
%union.pthread_cond_t = type { %struct.__pthread_cond_s }
%struct.__pthread_cond_s = type { %union.__atomic_wide_counter, %union.__atomic_wide_counter, [2 x i32], [2 x i32], i32, i32, [2 x i32] }
%union.__atomic_wide_counter = type { i64 }
%struct.log_options_t = type { i32, i32, i32, i8, i8, i8, i32 }
%struct.slurmd_config = type { ptr, ptr, i32, [4096 x i8], ptr, ptr, ptr, ptr, i16, i16, i16, i16, ptr, i16, i64, i16, i16, i16, i16, i16, i16, i16, i16, i16, i16, i16, i64, i64, i32, i32, i16, ptr, ptr, ptr, i32, ptr, ptr, ptr, ptr, ptr, ptr, ptr, ptr, ptr, ptr, i32, ptr, ptr, i16, i32, i32, %struct.log_options_t, i32, i16, i64, i8, i8, i8, i8, i8, %union.pthread_mutex_t, i16, ptr, %union.pthread_cond_t, ptr, %union.pthread_cond_t, i8, i8, ptr, ptr }
%struct.node_record = type { ptr, ptr, i16, i64, i64, ptr, ptr, ptr, i16, ptr, i16, i16, i32, i32, i64, ptr, i16, i16, ptr, ptr, ptr, ptr, ptr, i64, i64, ptr, ptr, ptr, ptr, i32, ptr, ptr, i64, i64, i32, ptr, i64, ptr, i32, i16, ptr, ptr, i32, ptr, i32, i8, ptr, i32, i16, i16, ptr, i16, i64, i16, i64, ptr, i64, i32, i16, i64, i16, ptr, i16, i64, ptr, i64, i16, i32, i16, ptr, ptr, ptr, i16, i32, i16, i16, i32, ptr, i16, i32 }
%struct.config_record_t = type { i16, i16, i16, i32, ptr, i16, ptr, ptr, i32, i64, ptr, ptr, i64, i16, i16, i32, i16, ptr, ptr, i32 }

@conf = dso_local global ptr null, align 8

; Function Attrs: nounwind uwtable
define internal i32 @_load_gres() #0 {
  %1 = alloca i32, align 4
  %2 = alloca i32, align 4
  %3 = alloca ptr, align 8
  %4 = alloca ptr, align 8
  call void @llvm.lifetime.start.p0(i64 4, ptr %1) #11
  call void @llvm.lifetime.start.p0(i64 4, ptr %2) #11
  call void @llvm.lifetime.start.p0(i64 8, ptr %3) #11
  call void @llvm.lifetime.start.p0(i64 8, ptr %4) #11
  store ptr null, ptr %4, align 8
  %5 = load ptr, ptr @conf, align 8
  %6 = getelementptr inbounds nuw %struct.slurmd_config, ptr %5, i32 0, i32 35
  %7 = load ptr, ptr %6, align 8
  %8 = call ptr @find_node_record2(ptr noundef %7)
  store ptr %8, ptr %3, align 8
  %9 = load ptr, ptr %3, align 8
  %10 = icmp ne ptr %9, null
  br i1 %10, label %11, label %22

11:                                               ; preds = %0
  %12 = load ptr, ptr %3, align 8
  %13 = getelementptr inbounds nuw %struct.node_record, ptr %12, i32 0, i32 9
  %14 = load ptr, ptr %13, align 8
  %15 = icmp ne ptr %14, null
  br i1 %15, label %16, label %22

16:                                               ; preds = %11
  %17 = load ptr, ptr %3, align 8
  %18 = getelementptr inbounds nuw %struct.node_record, ptr %17, i32 0, i32 9
  %19 = load ptr, ptr %18, align 8
  %20 = getelementptr inbounds nuw %struct.config_record_t, ptr %19, i32 0, i32 7
  %21 = load ptr, ptr %20, align 8
  call void @gres_init_node_config(ptr noundef %21, ptr noundef %4)
  br label %22

22:                                               ; preds = %16, %11, %0
  %23 = load ptr, ptr @conf, align 8
  %24 = getelementptr inbounds nuw %struct.slurmd_config, ptr %23, i32 0, i32 16
  %25 = load i16, ptr %24, align 2
  %26 = zext i16 %25 to i32
  %27 = load ptr, ptr @conf, align 8
  %28 = getelementptr inbounds nuw %struct.slurmd_config, ptr %27, i32 0, i32 30
  %29 = load i16, ptr %28, align 8
  %30 = zext i16 %29 to i32
  %31 = icmp sgt i32 %26, %30
  br i1 %31, label %32, label %37

32:                                               ; preds = %22
  %33 = load ptr, ptr @conf, align 8
  %34 = getelementptr inbounds nuw %struct.slurmd_config, ptr %33, i32 0, i32 16
  %35 = load i16, ptr %34, align 2
  %36 = zext i16 %35 to i32
  br label %42

37:                                               ; preds = %22
  %38 = load ptr, ptr @conf, align 8
  %39 = getelementptr inbounds nuw %struct.slurmd_config, ptr %38, i32 0, i32 30
  %40 = load i16, ptr %39, align 8
  %41 = zext i16 %40 to i32
  br label %42

42:                                               ; preds = %37, %32
  %43 = phi i32 [ %36, %32 ], [ %41, %37 ]
  store i32 %43, ptr %2, align 4
  %44 = load i32, ptr %2, align 4
  %45 = load ptr, ptr @conf, align 8
  %46 = getelementptr inbounds nuw %struct.slurmd_config, ptr %45, i32 0, i32 35
  %47 = load ptr, ptr %46, align 8
  %48 = load ptr, ptr %4, align 8
  %49 = call i32 @gres_g_node_config_load(i32 noundef %44, ptr noundef %47, ptr noundef %48, ptr noundef @xcpuinfo_abs_to_mac, ptr noundef @xcpuinfo_mac_to_abs)
  store i32 %49, ptr %1, align 4
  br label %50

50:                                               ; preds = %42
  %51 = load ptr, ptr %4, align 8
  %52 = icmp ne ptr %51, null
  br i1 %52, label %53, label %55

53:                                               ; preds = %50
  %54 = load ptr, ptr %4, align 8
  call void @list_destroy(ptr noundef %54)
  br label %55

55:                                               ; preds = %53, %50
  store ptr null, ptr %4, align 8
  br label %56

56:                                               ; preds = %55
  br label %57

57:                                               ; preds = %56
  %58 = load i32, ptr %1, align 4
  call void @llvm.lifetime.end.p0(i64 8, ptr %4) #11
  call void @llvm.lifetime.end.p0(i64 8, ptr %3) #11
  call void @llvm.lifetime.end.p0(i64 4, ptr %2) #11
  call void @llvm.lifetime.end.p0(i64 4, ptr %1) #11
  ret i32 %58
}