; Function Attrs: nounwind uwtable
define internal fastcc i32 @_load_gres() unnamed_addr #0 {
  %1 = alloca ptr, align 8
  call void @llvm.lifetime.start.p0(i64 8, ptr nonnull %1) #18
  store ptr null, ptr %1, align 8
  %2 = load ptr, ptr @conf, align 8
  %3 = getelementptr inbounds nuw i8, ptr %2, i64 4272
  %4 = load ptr, ptr %3, align 8
  %5 = tail call ptr @find_node_record2(ptr noundef %4) #18
  %.not = icmp eq ptr %5, null
  br i1 %.not, label %12, label %6

6:                                                ; preds = %0
  %7 = getelementptr inbounds nuw i8, ptr %5, i64 72
  %8 = load ptr, ptr %7, align 8
  %.not8 = icmp eq ptr %8, null
  br i1 %.not8, label %12, label %9

9:                                                ; preds = %6
  %10 = getelementptr inbounds nuw i8, ptr %8, i64 40
  %11 = load ptr, ptr %10, align 8
  call void @gres_init_node_config(ptr noundef %11, ptr noundef nonnull %1) #18
  %.pre = load ptr, ptr %1, align 8
  br label %12

12:                                               ; preds = %9, %6, %0
  %13 = phi ptr [ %.pre, %9 ], [ null, %6 ], [ null, %0 ]
  %14 = load ptr, ptr @conf, align 8
  %15 = getelementptr inbounds nuw i8, ptr %14, i64 4186
  %16 = load i16, ptr %15, align 2
  %17 = getelementptr inbounds nuw i8, ptr %14, i64 4232
  %18 = load i16, ptr %17, align 8
  %. = call i16 @llvm.umax.i16(i16 %16, i16 %18)
  %19 = zext i16 %. to i32
  %20 = getelementptr inbounds nuw i8, ptr %14, i64 4272
  %21 = load ptr, ptr %20, align 8
  %22 = call i32 @gres_g_node_config_load(i32 noundef %19, ptr noundef %21, ptr noundef %13, ptr noundef nonnull @xcpuinfo_abs_to_mac, ptr noundef nonnull @xcpuinfo_mac_to_abs) #18
  %23 = load ptr, ptr %1, align 8
  %.not9 = icmp eq ptr %23, null
  br i1 %.not9, label %25, label %24

24:                                               ; preds = %12
  call void @list_destroy(ptr noundef nonnull %23) #18
  br label %25

25:                                               ; preds = %24, %12
  call void @llvm.lifetime.end.p0(i64 8, ptr nonnull %1) #18
  ret i32 %22
}